; Function Attrs: mustprogress uwtable
define noundef i64 @_Z31MaxNumberOfConcurrentHandshakesv() local_unnamed_addr #3 personality ptr @__gxx_personality_v0 {
entry:
  %val.i.i = alloca i64, align 8
  %env_var_max_concurrent_handshakes = alloca %"class.std::optional", align 8
  call void @_ZN9grpc_core6GetEnvB5cxx11EPKc(ptr nonnull sret(%"class.std::optional") align 8 %env_var_max_concurrent_handshakes, ptr noundef nonnull @_ZL40kMaxConcurrentStreamsEnvironmentVariable)
  %_M_engaged.i.i = getelementptr inbounds i8, ptr %env_var_max_concurrent_handshakes, i64 32
  %0 = load i8, ptr %_M_engaged.i.i, align 8
  %1 = and i8 %0, 1
  %tobool.i.i.not = icmp eq i8 %1, 0
  br i1 %tobool.i.i.not, label %_ZNSt8optionalINSt7__cxx1112basic_stringIcSt11char_traitsIcESaIcEEEED2Ev.exit5, label %if.then

if.then:                                          ; preds = %entry
  %call2 = call { i64, ptr } @_ZNKSt7__cxx1112basic_stringIcSt11char_traitsIcESaIcEEcvSt17basic_string_viewIcS2_EEv(ptr noundef nonnull align 8 dereferenceable(32) %env_var_max_concurrent_handshakes) #18
  %2 = extractvalue { i64, ptr } %call2, 0
  %3 = extractvalue { i64, ptr } %call2, 1
  call void @llvm.lifetime.start.p0(i64 8, ptr nonnull %val.i.i)
  %call.i.i1 = invoke noundef zeroext i1 @_ZN4absl12lts_2023080216numbers_internal18safe_strtou64_baseESt17basic_string_viewIcSt11char_traitsIcEEPmi(i64 %2, ptr %3, ptr noundef nonnull %val.i.i, i32 noundef 10)
          to label %if.end5 unwind label %lpad

lpad:                                             ; preds = %if.then
  %4 = landingpad { ptr, i32 }
          cleanup
  %5 = load i8, ptr %_M_engaged.i.i, align 8
  %6 = and i8 %5, 1
  %tobool.not.i.i.i.i = icmp eq i8 %6, 0
  br i1 %tobool.not.i.i.i.i, label %_ZNSt8optionalINSt7__cxx1112basic_stringIcSt11char_traitsIcESaIcEEEED2Ev.exit, label %if.then.i.i.i.i

if.then.i.i.i.i:                                  ; preds = %lpad
  store i8 0, ptr %_M_engaged.i.i, align 8
  call void @_ZNSt7__cxx1112basic_stringIcSt11char_traitsIcESaIcEED1Ev(ptr noundef nonnull align 8 dereferenceable(32) %env_var_max_concurrent_handshakes) #18
  br label %_ZNSt8optionalINSt7__cxx1112basic_stringIcSt11char_traitsIcESaIcEEEED2Ev.exit

_ZNSt8optionalINSt7__cxx1112basic_stringIcSt11char_traitsIcESaIcEEEED2Ev.exit: ; preds = %lpad, %if.then.i.i.i.i
  resume { ptr, i32 } %4

if.end5:                                          ; preds = %if.then
  %7 = load i64, ptr %val.i.i, align 8
  call void @llvm.lifetime.end.p0(i64 8, ptr nonnull %val.i.i)
  %spec.select = select i1 %call.i.i1, i64 %7, i64 40
  %.pre = load i8, ptr %_M_engaged.i.i, align 8
  %.pre6 = and i8 %.pre, 1
  %8 = icmp eq i8 %.pre6, 0
  br i1 %8, label %_ZNSt8optionalINSt7__cxx1112basic_stringIcSt11char_traitsIcESaIcEEEED2Ev.exit5, label %if.then.i.i.i.i4

if.then.i.i.i.i4:                                 ; preds = %if.end5
  store i8 0, ptr %_M_engaged.i.i, align 8
  call void @_ZNSt7__cxx1112basic_stringIcSt11char_traitsIcESaIcEED1Ev(ptr noundef nonnull align 8 dereferenceable(32) %env_var_max_concurrent_handshakes) #18
  br label %_ZNSt8optionalINSt7__cxx1112basic_stringIcSt11char_traitsIcESaIcEEEED2Ev.exit5

_ZNSt8optionalINSt7__cxx1112basic_stringIcSt11char_traitsIcESaIcEEEED2Ev.exit5: ; preds = %entry, %if.end5, %if.then.i.i.i.i4
  %max_concurrent_handshakes.09 = phi i64 [ %spec.select, %if.end5 ], [ %spec.select, %if.then.i.i.i.i4 ], [ 40, %entry ]
  ret i64 %max_concurrent_handshakes.09
}